; Function Attrs: mustprogress nounwind willreturn memory(argmem: readwrite, inaccessiblemem: readwrite) uwtable
define internal void @_ZN4node12_GLOBAL__N_117CompressionStreamINS0_20BrotliEncoderContextEE11FreeForZlibEPvS4_(ptr nocapture noundef %data, ptr noundef %pointer) #15 align 2 {
entry:
  %cmp = icmp eq ptr %pointer, null
  br i1 %cmp, label %return, label %if.end

if.end:                                           ; preds = %entry
  %add.ptr = getelementptr inbounds i8, ptr %pointer, i64 -8
  %unreported_allocations_ = getelementptr inbounds i8, ptr %data, i64 224
  %0 = load i64, ptr %add.ptr, align 8
  %1 = atomicrmw sub ptr %unreported_allocations_, i64 %0 monotonic, align 8
  tail call void @free(ptr noundef nonnull %add.ptr) #22
  br label %return

return:                                           ; preds = %entry, %if.end
  ret void
}